target datalayout = "e-m:e-p270:32:32-p271:32:32-p272:64:64-i64:64-i128:128-f80:128-n8:16:32:64-S128"
target triple = "x86_64-pc-linux-gnu"

%struct.Ivy_FraigMan_t_ = type { ptr, i64, i64, ptr, ptr, i32, ptr, ptr, i32, ptr, ptr, %struct.Ivy_FraigList_t_, %struct.Ivy_FraigList_t_, i32, ptr, i32, ptr, ptr, i32, i32, i32, i32, i32, i32, i32, i32, i32, i32, i32, i32, i32, i64, i64, i64, i64, i64, i64, i64, i64, i64, i64 }
%struct.Ivy_FraigList_t_ = type { ptr, ptr, i32 }

; Function Attrs: nounwind uwtable
define void @Ivy_FraigSavePattern1(ptr noundef %0) #0 {
  %2 = alloca ptr, align 8
  store ptr %0, ptr %2, align 8, !tbaa !60
  %3 = load ptr, ptr %2, align 8, !tbaa !60
  %4 = getelementptr inbounds nuw %struct.Ivy_FraigMan_t_, ptr %3, i32 0, i32 9
  %5 = load ptr, ptr %4, align 8, !tbaa !111
  %6 = load ptr, ptr %2, align 8, !tbaa !60
  %7 = getelementptr inbounds nuw %struct.Ivy_FraigMan_t_, ptr %6, i32 0, i32 8
  %8 = load i32, ptr %7, align 8, !tbaa !110
  %9 = sext i32 %8 to i64
  %10 = mul i64 4, %9
  call void @llvm.memset.p0.i64(ptr align 4 %5, i8 -1, i64 %10, i1 false)
  ret void
}