; Function Attrs: mustprogress nofree norecurse nosync nounwind willreturn memory(write, argmem: readwrite, inaccessiblemem: none) uwtable
define void @Ivy_FraigSavePattern1(ptr noundef readonly captures(none) %0) local_unnamed_addr #12 {
  %2 = getelementptr inbounds nuw i8, ptr %0, i64 72
  %3 = load ptr, ptr %2, align 8, !tbaa !109
  %4 = getelementptr inbounds nuw i8, ptr %0, i64 64
  %5 = load i32, ptr %4, align 8, !tbaa !108
  %6 = sext i32 %5 to i64
  %7 = shl nsw i64 %6, 2
  tail call void @llvm.memset.p0.i64(ptr align 4 %3, i8 -1, i64 %7, i1 false)
  ret void
}